; Function Attrs: mustprogress nofree norecurse nosync nounwind willreturn memory(argmem: write) uwtable
define range(i32 -173, 2) i32 @wolfSSL_CTX_set_timeout(ptr noundef writeonly captures(address_is_null) %0, i32 noundef %1) local_unnamed_addr #5 {
  %.not = icmp eq ptr %0, null
  br i1 %.not, label %5, label %.sink.split

.sink.split:                                      ; preds = %2
  %3 = icmp eq i32 %1, 0
  %4 = getelementptr inbounds nuw i8, ptr %0, i64 224
  %. = select i1 %3, i32 500, i32 %1
  store i32 %., ptr %4, align 8, !tbaa !107
  br label %5

5:                                                ; preds = %.sink.split, %2
  %spec.store.select = phi i32 [ -173, %2 ], [ 1, %.sink.split ]
  ret i32 %spec.store.select
}